; Function Attrs: nounwind uwtable
define internal noundef i32 @_import_metadata_reset_all(ptr readnone captures(none) %0, ptr noundef readonly captures(none) %1, ptr noundef readonly captures(none) %2) #0 {
  %4 = load i32, ptr %1, align 8, !tbaa !72
  %5 = icmp eq i32 %4, 5
  br i1 %5, label %6, label %7

6:                                                ; preds = %3
  tail call fastcc void @_metadata_reset_all(ptr noundef %2, i32 noundef 0)
  br label %7

7:                                                ; preds = %6, %3
  ret i32 0
}